; Function Attrs: mustprogress nofree norecurse nosync nounwind willreturn memory(argmem: readwrite) uwtable
define dso_local void @_ZN5clang5RISCV7RVVType13applyFixedSEWEj(ptr nocapture noundef nonnull align 8 dereferenceable(160) %0, i32 noundef %1) local_unnamed_addr #4 align 2 {
  %3 = getelementptr inbounds nuw i8, ptr %0, i64 12
  %4 = load i32, ptr %3, align 4
  %5 = icmp eq i32 %4, %1
  br i1 %5, label %6, label %8

6:                                                ; preds = %2
  %7 = getelementptr inbounds nuw i8, ptr %0, i64 1
  store i8 10, ptr %7, align 1
  br label %28

8:                                                ; preds = %2
  store i32 %1, ptr %3, align 4
  %9 = getelementptr inbounds nuw i8, ptr %0, i64 4
  %10 = add i32 %1, -8
  %11 = tail call i32 @llvm.fshl.i32(i32 %10, i32 %10, i32 29)
  switch i32 %11, label %.thread.i [
    i32 0, label %12
    i32 1, label %15
    i32 3, label %18
    i32 7, label %21
  ]

12:                                               ; preds = %8
  %13 = load i32, ptr %9, align 4
  %14 = add nsw i32 %13, 3
  br label %23

15:                                               ; preds = %8
  %16 = load i32, ptr %9, align 4
  %17 = add nsw i32 %16, 2
  br label %23

18:                                               ; preds = %8
  %19 = load i32, ptr %9, align 4
  %20 = add nsw i32 %19, 1
  br label %23

21:                                               ; preds = %8
  %22 = load i32, ptr %9, align 4
  br label %23

23:                                               ; preds = %21, %18, %15, %12
  %.0.i = phi i32 [ %22, %21 ], [ %20, %18 ], [ %17, %15 ], [ %14, %12 ]
  %24 = icmp slt i32 %.0.i, 0
  br i1 %24, label %_ZNK5clang5RISCV8LMULType8getScaleEj.exit, label %.thread.i

.thread.i:                                        ; preds = %23, %8
  %.04.i = phi i32 [ %.0.i, %23 ], [ 0, %8 ]
  %25 = shl nuw i32 1, %.04.i
  %26 = zext i32 %25 to i64
  br label %_ZNK5clang5RISCV8LMULType8getScaleEj.exit

_ZNK5clang5RISCV8LMULType8getScaleEj.exit:        ; preds = %23, %.thread.i
  %.sroa.0.0.i = phi i64 [ %26, %.thread.i ], [ 0, %23 ]
  %.sroa.2.0.i = phi i64 [ 4294967296, %.thread.i ], [ 0, %23 ]
  %.sroa.0.0.insert.insert.i = or disjoint i64 %.sroa.2.0.i, %.sroa.0.0.i
  %27 = getelementptr inbounds nuw i8, ptr %0, i64 16
  store i64 %.sroa.0.0.insert.insert.i, ptr %27, align 8
  br label %28

28:                                               ; preds = %_ZNK5clang5RISCV8LMULType8getScaleEj.exit, %6
  ret void
}